target datalayout = "e-m:e-p270:32:32-p271:32:32-p272:64:64-i64:64-i128:128-f80:128-n8:16:32:64-S128"
target triple = "x86_64-pc-linux-gnu"

%struct.PHP_HAVAL_CTX = type { [8 x i32], [2 x i32], [128 x i8], i8, i16, ptr }

@D0 = internal constant [8 x i32] [i32 608135816, i32 -2052912941, i32 320440878, i32 57701188, i32 -1542899678, i32 698298832, i32 137296536, i32 -330404727], align 16

; Function Attrs: nounwind uwtable
define dso_local void @PHP_3HAVAL192Init(ptr noundef %0, ptr noundef %1) #0 {
  %3 = alloca ptr, align 8
  %4 = alloca ptr, align 8
  %5 = alloca i32, align 4
  store ptr %0, ptr %3, align 8, !tbaa !4
  store ptr %1, ptr %4, align 8, !tbaa !8
  call void @llvm.lifetime.start.p0(i64 4, ptr %5) #5
  %6 = load ptr, ptr %3, align 8, !tbaa !4
  %7 = getelementptr inbounds nuw %struct.PHP_HAVAL_CTX, ptr %6, i32 0, i32 1
  %8 = getelementptr inbounds [2 x i32], ptr %7, i64 0, i64 1
  store i32 0, ptr %8, align 4, !tbaa !10
  %9 = load ptr, ptr %3, align 8, !tbaa !4
  %10 = getelementptr inbounds nuw %struct.PHP_HAVAL_CTX, ptr %9, i32 0, i32 1
  %11 = getelementptr inbounds [2 x i32], ptr %10, i64 0, i64 0
  store i32 0, ptr %11, align 8, !tbaa !10
  store i32 0, ptr %5, align 4, !tbaa !10
  br label %12

12:                                               ; preds = %25, %2
  %13 = load i32, ptr %5, align 4, !tbaa !10
  %14 = icmp slt i32 %13, 8
  br i1 %14, label %15, label %28

15:                                               ; preds = %12
  %16 = load i32, ptr %5, align 4, !tbaa !10
  %17 = sext i32 %16 to i64
  %18 = getelementptr inbounds [8 x i32], ptr @D0, i64 0, i64 %17
  %19 = load i32, ptr %18, align 4, !tbaa !10
  %20 = load ptr, ptr %3, align 8, !tbaa !4
  %21 = getelementptr inbounds nuw %struct.PHP_HAVAL_CTX, ptr %20, i32 0, i32 0
  %22 = load i32, ptr %5, align 4, !tbaa !10
  %23 = sext i32 %22 to i64
  %24 = getelementptr inbounds [8 x i32], ptr %21, i64 0, i64 %23
  store i32 %19, ptr %24, align 4, !tbaa !10
  br label %25

25:                                               ; preds = %15
  %26 = load i32, ptr %5, align 4, !tbaa !10
  %27 = add nsw i32 %26, 1
  store i32 %27, ptr %5, align 4, !tbaa !10
  br label %12

28:                                               ; preds = %12
  %29 = load ptr, ptr %3, align 8, !tbaa !4
  %30 = getelementptr inbounds nuw %struct.PHP_HAVAL_CTX, ptr %29, i32 0, i32 3
  store i8 3, ptr %30, align 8, !tbaa !12
  %31 = load ptr, ptr %3, align 8, !tbaa !4
  %32 = getelementptr inbounds nuw %struct.PHP_HAVAL_CTX, ptr %31, i32 0, i32 4
  store i16 192, ptr %32, align 2, !tbaa !15
  %33 = load ptr, ptr %3, align 8, !tbaa !4
  %34 = getelementptr inbounds nuw %struct.PHP_HAVAL_CTX, ptr %33, i32 0, i32 5
  store ptr @PHP_3HAVALTransform, ptr %34, align 8, !tbaa !16
  call void @llvm.lifetime.end.p0(i64 4, ptr %5) #5
  ret void
}